; Function Attrs: nounwind uwtable
define void @Sat_MmStepRestart(ptr noundef captures(none) %0) local_unnamed_addr #2 {
  %2 = getelementptr inbounds nuw i8, ptr %0, i64 32
  %3 = load i32, ptr %2, align 8, !tbaa !50
  %.not = icmp eq i32 %3, 0
  br i1 %.not, label %21, label %.preheader

.preheader:                                       ; preds = %1
  %4 = getelementptr inbounds nuw i8, ptr %0, i64 36
  %5 = load i32, ptr %4, align 4, !tbaa !51
  %6 = icmp sgt i32 %5, 0
  br i1 %6, label %.lr.ph, label %._crit_edge

.lr.ph:                                           ; preds = %.preheader
  %7 = getelementptr inbounds nuw i8, ptr %0, i64 40
  %.pre = load ptr, ptr %7, align 8, !tbaa !52
  br label %8

8:                                                ; preds = %.lr.ph, %16
  %9 = phi i32 [ %5, %.lr.ph ], [ %17, %16 ]
  %10 = phi ptr [ %.pre, %.lr.ph ], [ %18, %16 ]
  %indvars.iv = phi i64 [ 0, %.lr.ph ], [ %indvars.iv.next, %16 ]
  %11 = getelementptr inbounds nuw ptr, ptr %10, i64 %indvars.iv
  %12 = load ptr, ptr %11, align 8, !tbaa !19
  %.not16 = icmp eq ptr %12, null
  br i1 %.not16, label %16, label %13

13:                                               ; preds = %8
  tail call void @free(ptr noundef nonnull %12) #15
  %14 = load ptr, ptr %7, align 8, !tbaa !52
  %15 = getelementptr inbounds nuw ptr, ptr %14, i64 %indvars.iv
  store ptr null, ptr %15, align 8, !tbaa !19
  %.pre29 = load i32, ptr %4, align 4, !tbaa !51
  br label %16

16:                                               ; preds = %13, %8
  %17 = phi i32 [ %.pre29, %13 ], [ %9, %8 ]
  %18 = phi ptr [ %14, %13 ], [ %10, %8 ]
  %indvars.iv.next = add nuw nsw i64 %indvars.iv, 1
  %19 = sext i32 %17 to i64
  %20 = icmp slt i64 %indvars.iv.next, %19
  br i1 %20, label %8, label %._crit_edge, !llvm.loop !55

._crit_edge:                                      ; preds = %16, %.preheader
  store i32 0, ptr %4, align 4, !tbaa !51
  br label %21

21:                                               ; preds = %._crit_edge, %1
  %22 = load i32, ptr %0, align 8, !tbaa !38
  %23 = icmp sgt i32 %22, 0
  br i1 %23, label %.lr.ph22, label %._crit_edge23

.lr.ph22:                                         ; preds = %21
  %24 = getelementptr inbounds nuw i8, ptr %0, i64 8
  br label %25

25:                                               ; preds = %.lr.ph22, %Sat_MmFixedRestart.exit
  %26 = phi i32 [ %22, %.lr.ph22 ], [ %63, %Sat_MmFixedRestart.exit ]
  %indvars.iv26 = phi i64 [ 0, %.lr.ph22 ], [ %indvars.iv.next27, %Sat_MmFixedRestart.exit ]
  %27 = load ptr, ptr %24, align 8, !tbaa !41
  %28 = getelementptr inbounds nuw ptr, ptr %27, i64 %indvars.iv26
  %29 = load ptr, ptr %28, align 8, !tbaa !42
  %30 = getelementptr inbounds nuw i8, ptr %29, i64 32
  %31 = load i32, ptr %30, align 8, !tbaa !12
  %32 = icmp eq i32 %31, 0
  br i1 %32, label %Sat_MmFixedRestart.exit, label %.preheader.i

.preheader.i:                                     ; preds = %25
  %33 = icmp sgt i32 %31, 1
  %34 = getelementptr inbounds nuw i8, ptr %29, i64 40
  %.pre.i = load ptr, ptr %34, align 8, !tbaa !13
  br i1 %33, label %.lr.ph.i, label %._crit_edge.i

.lr.ph.i:                                         ; preds = %.preheader.i, %42
  %35 = phi i32 [ %43, %42 ], [ %31, %.preheader.i ]
  %36 = phi ptr [ %44, %42 ], [ %.pre.i, %.preheader.i ]
  %indvars.iv.i = phi i64 [ %indvars.iv.next.i, %42 ], [ 1, %.preheader.i ]
  %37 = getelementptr inbounds nuw ptr, ptr %36, i64 %indvars.iv.i
  %38 = load ptr, ptr %37, align 8, !tbaa !19
  %.not.i = icmp eq ptr %38, null
  br i1 %.not.i, label %42, label %39

39:                                               ; preds = %.lr.ph.i
  tail call void @free(ptr noundef nonnull %38) #15
  %40 = load ptr, ptr %34, align 8, !tbaa !13
  %41 = getelementptr inbounds nuw ptr, ptr %40, i64 %indvars.iv.i
  store ptr null, ptr %41, align 8, !tbaa !19
  %.pre39.i = load i32, ptr %30, align 8, !tbaa !12
  br label %42

42:                                               ; preds = %39, %.lr.ph.i
  %43 = phi i32 [ %.pre39.i, %39 ], [ %35, %.lr.ph.i ]
  %44 = phi ptr [ %40, %39 ], [ %36, %.lr.ph.i ]
  %indvars.iv.next.i = add nuw nsw i64 %indvars.iv.i, 1
  %45 = sext i32 %43 to i64
  %46 = icmp slt i64 %indvars.iv.next.i, %45
  br i1 %46, label %.lr.ph.i, label %._crit_edge.i, !llvm.loop !25

._crit_edge.i:                                    ; preds = %42, %.preheader.i
  %47 = phi ptr [ %.pre.i, %.preheader.i ], [ %44, %42 ]
  store i32 1, ptr %30, align 8, !tbaa !12
  %48 = load ptr, ptr %47, align 8, !tbaa !19
  %49 = getelementptr inbounds nuw i8, ptr %29, i64 24
  %50 = load i32, ptr %49, align 8, !tbaa !16
  %51 = icmp sgt i32 %50, 1
  %.pre41.i = load i32, ptr %29, align 8, !tbaa !3
  br i1 %51, label %.lr.ph35.i, label %._crit_edge36.i

.lr.ph35.i:                                       ; preds = %._crit_edge.i
  %52 = sext i32 %.pre41.i to i64
  br label %53

53:                                               ; preds = %53, %.lr.ph35.i
  %.033.i = phi ptr [ %48, %.lr.ph35.i ], [ %54, %53 ]
  %.132.i = phi i32 [ 1, %.lr.ph35.i ], [ %55, %53 ]
  %54 = getelementptr inbounds i8, ptr %.033.i, i64 %52
  store ptr %54, ptr %.033.i, align 8, !tbaa !19
  %55 = add nuw nsw i32 %.132.i, 1
  %exitcond.not.i = icmp eq i32 %55, %50
  br i1 %exitcond.not.i, label %._crit_edge36.i, label %53, !llvm.loop !26

._crit_edge36.i:                                  ; preds = %53, %._crit_edge.i
  %.0.lcssa.i = phi ptr [ %48, %._crit_edge.i ], [ %54, %53 ]
  store ptr null, ptr %.0.lcssa.i, align 8, !tbaa !19
  %56 = load ptr, ptr %47, align 8, !tbaa !19
  %57 = getelementptr inbounds nuw i8, ptr %29, i64 16
  store ptr %56, ptr %57, align 8, !tbaa !23
  %58 = mul nsw i32 %.pre41.i, %50
  %59 = getelementptr inbounds nuw i8, ptr %29, i64 52
  store i32 %58, ptr %59, align 4, !tbaa !15
  %60 = getelementptr inbounds nuw i8, ptr %29, i64 48
  store i32 0, ptr %60, align 8, !tbaa !14
  %61 = getelementptr inbounds nuw i8, ptr %29, i64 4
  store i32 %50, ptr %61, align 4, !tbaa !22
  %62 = getelementptr inbounds nuw i8, ptr %29, i64 8
  store i32 0, ptr %62, align 8, !tbaa !17
  %.pre30 = load i32, ptr %0, align 8, !tbaa !38
  br label %Sat_MmFixedRestart.exit

Sat_MmFixedRestart.exit:                          ; preds = %25, %._crit_edge36.i
  %63 = phi i32 [ %26, %25 ], [ %.pre30, %._crit_edge36.i ]
  %indvars.iv.next27 = add nuw nsw i64 %indvars.iv26, 1
  %64 = sext i32 %63 to i64
  %65 = icmp slt i64 %indvars.iv.next27, %64
  br i1 %65, label %25, label %._crit_edge23, !llvm.loop !56

._crit_edge23:                                    ; preds = %Sat_MmFixedRestart.exit, %21
  ret void
}